target datalayout = "e-m:e-p270:32:32-p271:32:32-p272:64:64-i64:64-i128:128-f80:128-n8:16:32:64-S128"
target triple = "x86_64-pc-linux-gnu"

%struct.index_state = type { ptr, i32, i32, i32, i32, ptr, ptr, ptr, %struct.cache_time, i8, i32, %struct.hashmap, %struct.hashmap, %struct.object_id, ptr, ptr, ptr, ptr, ptr, ptr, ptr }
%struct.cache_time = type { i32, i32 }
%struct.hashmap = type { ptr, ptr, ptr, i32, i32, i32, i32, i8 }
%struct.object_id = type { [32 x i8], i32 }
%struct.lock_file = type { ptr }

@.str = private unnamed_addr constant [1 x i8] zeroinitializer, align 1
@the_repository = external global ptr, align 8
@.str.18 = private unnamed_addr constant [13 x i8] c"read-cache.c\00", align 1
@.str.19 = private unnamed_addr constant [6 x i8] c"index\00", align 1
@.str.34 = private unnamed_addr constant [3 x i8] c"%s\00", align 1
@alternate_index_output = internal global ptr null, align 8
@git_gettext_enabled = external global i32, align 4
@.str.75 = private unnamed_addr constant [36 x i8] c"failed to convert to a sparse-index\00", align 1
@.str.76 = private unnamed_addr constant [15 x i8] c"do_write_index\00", align 1
@.str.77 = private unnamed_addr constant [18 x i8] c"post-index-change\00", align 1
@.str.78 = private unnamed_addr constant [2 x i8] c"1\00", align 1
@.str.79 = private unnamed_addr constant [2 x i8] c"0\00", align 1

; Function Attrs: inlinehint nounwind uwtable
define internal i32 @commit_lock_file_to(ptr noundef %0, ptr noundef %1) #3 {
  %3 = alloca ptr, align 8
  %4 = alloca ptr, align 8
  store ptr %0, ptr %3, align 8, !tbaa !92
  store ptr %1, ptr %4, align 8, !tbaa !11
  %5 = load ptr, ptr %3, align 8, !tbaa !92
  %6 = getelementptr inbounds nuw %struct.lock_file, ptr %5, i32 0, i32 0
  %7 = load ptr, ptr %4, align 8, !tbaa !11
  %8 = call i32 @rename_tempfile(ptr noundef %6, ptr noundef %7)
  ret i32 %8
}

; Function Attrs: inlinehint nounwind uwtable
define internal i32 @close_lock_file_gently(ptr noundef %0) #3 {
  %2 = alloca ptr, align 8
  store ptr %0, ptr %2, align 8, !tbaa !92
  %3 = load ptr, ptr %2, align 8, !tbaa !92
  %4 = getelementptr inbounds nuw %struct.lock_file, ptr %3, i32 0, i32 0
  %5 = load ptr, ptr %4, align 8, !tbaa !200
  %6 = call i32 @close_tempfile_gently(ptr noundef %5)
  ret i32 %6
}

; Function Attrs: nounwind uwtable
define internal i32 @commit_locked_index(ptr noundef %0) #0 {
  %2 = alloca i32, align 4
  %3 = alloca ptr, align 8
  store ptr %0, ptr %3, align 8, !tbaa !92
  %4 = load ptr, ptr @alternate_index_output, align 8, !tbaa !11
  %5 = icmp ne ptr %4, null
  br i1 %5, label %6, label %10

6:                                                ; preds = %1
  %7 = load ptr, ptr %3, align 8, !tbaa !92
  %8 = load ptr, ptr @alternate_index_output, align 8, !tbaa !11
  %9 = call i32 @commit_lock_file_to(ptr noundef %7, ptr noundef %8)
  store i32 %9, ptr %2, align 4
  br label %13

10:                                               ; preds = %1
  %11 = load ptr, ptr %3, align 8, !tbaa !92
  %12 = call i32 @commit_lock_file(ptr noundef %11)
  store i32 %12, ptr %2, align 4
  br label %13

13:                                               ; preds = %10, %6
  %14 = load i32, ptr %2, align 4
  ret i32 %14
}

; Function Attrs: inlinehint nounwind uwtable
define internal ptr @get_lock_file_path(ptr noundef %0) #3 {
  %2 = alloca ptr, align 8
  store ptr %0, ptr %2, align 8, !tbaa !92
  %3 = load ptr, ptr %2, align 8, !tbaa !92
  %4 = getelementptr inbounds nuw %struct.lock_file, ptr %3, i32 0, i32 0
  %5 = load ptr, ptr %4, align 8, !tbaa !200
  %6 = call ptr @get_tempfile_path(ptr noundef %5)
  ret ptr %6
}

; Function Attrs: inlinehint nounwind uwtable
define internal ptr @_(ptr noundef %0) #3 {
  %2 = alloca ptr, align 8
  %3 = alloca ptr, align 8
  store ptr %0, ptr %3, align 8, !tbaa !11
  %4 = load ptr, ptr %3, align 8, !tbaa !11
  %5 = load i8, ptr %4, align 1, !tbaa !73
  %6 = icmp ne i8 %5, 0
  br i1 %6, label %8, label %7

7:                                                ; preds = %1
  store ptr @.str, ptr %2, align 8
  br label %16

8:                                                ; preds = %1
  %9 = load i32, ptr @git_gettext_enabled, align 4, !tbaa !9
  %10 = icmp ne i32 %9, 0
  br i1 %10, label %13, label %11

11:                                               ; preds = %8
  %12 = load ptr, ptr %3, align 8, !tbaa !11
  store ptr %12, ptr %2, align 8
  br label %16

13:                                               ; preds = %8
  %14 = load ptr, ptr %3, align 8, !tbaa !11
  %15 = call ptr @dcgettext(ptr noundef null, ptr noundef %14, i32 noundef 5) #12
  store ptr %15, ptr %2, align 8
  br label %16

16:                                               ; preds = %13, %11, %7
  %17 = load ptr, ptr %2, align 8
  ret ptr %17
}

; Function Attrs: nounwind uwtable
define internal i32 @do_write_locked_index(ptr noundef %0, ptr noundef %1, i32 noundef %2, i32 noundef %3) #0 {
  %5 = alloca i32, align 4
  %6 = alloca ptr, align 8
  %7 = alloca ptr, align 8
  %8 = alloca i32, align 4
  %9 = alloca i32, align 4
  %10 = alloca i32, align 4
  %11 = alloca i32, align 4
  %12 = alloca i32, align 4
  store ptr %0, ptr %6, align 8, !tbaa !4
  store ptr %1, ptr %7, align 8, !tbaa !92
  store i32 %2, ptr %8, align 4, !tbaa !9
  store i32 %3, ptr %9, align 4, !tbaa !9
  call void @llvm.lifetime.start.p0(i64 4, ptr %10) #12
  call void @llvm.lifetime.start.p0(i64 4, ptr %11) #12
  %13 = load ptr, ptr %6, align 8, !tbaa !4
  %14 = getelementptr inbounds nuw %struct.index_state, ptr %13, i32 0, i32 10
  %15 = load i32, ptr %14, align 4, !tbaa !67
  %16 = icmp eq i32 %15, 0
  %17 = zext i1 %16 to i32
  store i32 %17, ptr %11, align 4, !tbaa !9
  %18 = load ptr, ptr %6, align 8, !tbaa !4
  %19 = call i32 @convert_to_sparse(ptr noundef %18, i32 noundef 0)
  store i32 %19, ptr %10, align 4, !tbaa !9
  %20 = load i32, ptr %10, align 4, !tbaa !9
  %21 = icmp ne i32 %20, 0
  br i1 %21, label %22, label %25

22:                                               ; preds = %4
  %23 = call ptr @_(ptr noundef @.str.75)
  call void (ptr, ...) @warning(ptr noundef %23)
  %24 = load i32, ptr %10, align 4, !tbaa !9
  store i32 %24, ptr %5, align 4
  store i32 1, ptr %12, align 4
  br label %88

25:                                               ; preds = %4
  %26 = load ptr, ptr @the_repository, align 8, !tbaa !48
  %27 = load ptr, ptr %7, align 8, !tbaa !92
  %28 = call ptr @get_lock_file_path(ptr noundef %27)
  call void (ptr, i32, ptr, ptr, ptr, ptr, ...) @trace2_region_enter_printf_fl(ptr noundef @.str.18, i32 noundef 3168, ptr noundef @.str.19, ptr noundef @.str.76, ptr noundef %26, ptr noundef @.str.34, ptr noundef %28)
  %29 = load ptr, ptr %6, align 8, !tbaa !4
  %30 = load ptr, ptr %7, align 8, !tbaa !92
  %31 = getelementptr inbounds nuw %struct.lock_file, ptr %30, i32 0, i32 0
  %32 = load ptr, ptr %31, align 8, !tbaa !200
  %33 = load i32, ptr %9, align 4, !tbaa !9
  %34 = load i32, ptr %8, align 4, !tbaa !9
  %35 = call i32 @do_write_index(ptr noundef %29, ptr noundef %32, i32 noundef %33, i32 noundef %34)
  store i32 %35, ptr %10, align 4, !tbaa !9
  %36 = load ptr, ptr @the_repository, align 8, !tbaa !48
  %37 = load ptr, ptr %7, align 8, !tbaa !92
  %38 = call ptr @get_lock_file_path(ptr noundef %37)
  call void (ptr, i32, ptr, ptr, ptr, ptr, ...) @trace2_region_leave_printf_fl(ptr noundef @.str.18, i32 noundef 3171, ptr noundef @.str.19, ptr noundef @.str.76, ptr noundef %36, ptr noundef @.str.34, ptr noundef %38)
  %39 = load i32, ptr %11, align 4, !tbaa !9
  %40 = icmp ne i32 %39, 0
  br i1 %40, label %41, label %43

41:                                               ; preds = %25
  %42 = load ptr, ptr %6, align 8, !tbaa !4
  call void @ensure_full_index(ptr noundef %42)
  br label %43

43:                                               ; preds = %41, %25
  %44 = load i32, ptr %10, align 4, !tbaa !9
  %45 = icmp ne i32 %44, 0
  br i1 %45, label %46, label %48

46:                                               ; preds = %43
  %47 = load i32, ptr %10, align 4, !tbaa !9
  store i32 %47, ptr %5, align 4
  store i32 1, ptr %12, align 4
  br label %88

48:                                               ; preds = %43
  %49 = load i32, ptr %8, align 4, !tbaa !9
  %50 = and i32 %49, 1
  %51 = icmp ne i32 %50, 0
  br i1 %51, label %52, label %55

52:                                               ; preds = %48
  %53 = load ptr, ptr %7, align 8, !tbaa !92
  %54 = call i32 @commit_locked_index(ptr noundef %53)
  store i32 %54, ptr %10, align 4, !tbaa !9
  br label %58

55:                                               ; preds = %48
  %56 = load ptr, ptr %7, align 8, !tbaa !92
  %57 = call i32 @close_lock_file_gently(ptr noundef %56)
  store i32 %57, ptr %10, align 4, !tbaa !9
  br label %58

58:                                               ; preds = %55, %52
  %59 = load ptr, ptr @the_repository, align 8, !tbaa !48
  %60 = load ptr, ptr %6, align 8, !tbaa !4
  %61 = getelementptr inbounds nuw %struct.index_state, ptr %60, i32 0, i32 9
  %62 = load i8, ptr %61, align 8
  %63 = lshr i8 %62, 3
  %64 = and i8 %63, 1
  %65 = zext i8 %64 to i32
  %66 = icmp ne i32 %65, 0
  %67 = select i1 %66, ptr @.str.78, ptr @.str.79
  %68 = load ptr, ptr %6, align 8, !tbaa !4
  %69 = getelementptr inbounds nuw %struct.index_state, ptr %68, i32 0, i32 9
  %70 = load i8, ptr %69, align 8
  %71 = lshr i8 %70, 4
  %72 = and i8 %71, 1
  %73 = zext i8 %72 to i32
  %74 = icmp ne i32 %73, 0
  %75 = select i1 %74, ptr @.str.78, ptr @.str.79
  %76 = call i32 (ptr, ptr, ...) @run_hooks_l(ptr noundef %59, ptr noundef @.str.77, ptr noundef %67, ptr noundef %75, ptr noundef null)
  %77 = load ptr, ptr %6, align 8, !tbaa !4
  %78 = getelementptr inbounds nuw %struct.index_state, ptr %77, i32 0, i32 9
  %79 = load i8, ptr %78, align 8
  %80 = and i8 %79, -9
  %81 = or i8 %80, 0
  store i8 %81, ptr %78, align 8
  %82 = load ptr, ptr %6, align 8, !tbaa !4
  %83 = getelementptr inbounds nuw %struct.index_state, ptr %82, i32 0, i32 9
  %84 = load i8, ptr %83, align 8
  %85 = and i8 %84, -17
  %86 = or i8 %85, 0
  store i8 %86, ptr %83, align 8
  %87 = load i32, ptr %10, align 4, !tbaa !9
  store i32 %87, ptr %5, align 4
  store i32 1, ptr %12, align 4
  br label %88

88:                                               ; preds = %58, %46, %22
  call void @llvm.lifetime.end.p0(i64 4, ptr %11) #12
  call void @llvm.lifetime.end.p0(i64 4, ptr %10) #12
  %89 = load i32, ptr %5, align 4
  ret i32 %89
}