; Function Attrs: nounwind uwtable
define internal fastcc i32 @do_write_locked_index(ptr noundef %0, ptr noundef %1, i32 noundef %2, i32 noundef range(i32 -2, 0) %3) unnamed_addr #0 {
  %5 = getelementptr inbounds nuw i8, ptr %0, i64 60
  %6 = load i32, ptr %5, align 4, !tbaa !41
  %7 = tail call i32 @convert_to_sparse(ptr noundef %0, i32 noundef 0) #30
  %.not = icmp eq i32 %7, 0
  br i1 %.not, label %12, label %8

8:                                                ; preds = %4
  %9 = load i32, ptr @git_gettext_enabled, align 4, !tbaa !32
  %.not4.i = icmp eq i32 %9, 0
  br i1 %.not4.i, label %_.exit, label %10

10:                                               ; preds = %8
  %11 = tail call ptr @dcgettext(ptr noundef null, ptr noundef nonnull @.str.75, i32 noundef 5) #30
  br label %_.exit

_.exit:                                           ; preds = %8, %10
  %.0.i = phi ptr [ %11, %10 ], [ @.str.75, %8 ]
  tail call void (ptr, ...) @warning(ptr noundef %.0.i) #30
  br label %42

12:                                               ; preds = %4
  %13 = icmp eq i32 %6, 0
  %14 = load ptr, ptr @the_repository, align 8, !tbaa !52
  %.val = load ptr, ptr %1, align 8, !tbaa !173
  %15 = tail call ptr @get_tempfile_path(ptr noundef %.val) #30
  tail call void (ptr, i32, ptr, ptr, ptr, ptr, ...) @trace2_region_enter_printf_fl(ptr noundef nonnull @.str.18, i32 noundef 3168, ptr noundef nonnull @.str.19, ptr noundef nonnull @.str.76, ptr noundef %14, ptr noundef nonnull @.str.34, ptr noundef %15) #30
  %16 = load ptr, ptr %1, align 8, !tbaa !173
  %17 = tail call fastcc i32 @do_write_index(ptr noundef nonnull %0, ptr noundef %16, i32 noundef %3, i32 noundef %2)
  %18 = load ptr, ptr @the_repository, align 8, !tbaa !52
  %.val29 = load ptr, ptr %1, align 8, !tbaa !173
  %19 = tail call ptr @get_tempfile_path(ptr noundef %.val29) #30
  tail call void (ptr, i32, ptr, ptr, ptr, ptr, ...) @trace2_region_leave_printf_fl(ptr noundef nonnull @.str.18, i32 noundef 3171, ptr noundef nonnull @.str.19, ptr noundef nonnull @.str.76, ptr noundef %18, ptr noundef nonnull @.str.34, ptr noundef %19) #30
  br i1 %13, label %20, label %21

20:                                               ; preds = %12
  tail call void @ensure_full_index(ptr noundef nonnull %0) #30
  br label %21

21:                                               ; preds = %20, %12
  %.not25 = icmp eq i32 %17, 0
  br i1 %.not25, label %22, label %42

22:                                               ; preds = %21
  %23 = and i32 %2, 1
  %.not26 = icmp eq i32 %23, 0
  br i1 %.not26, label %30, label %24

24:                                               ; preds = %22
  %25 = load ptr, ptr @alternate_index_output, align 8, !tbaa !81
  %.not.i = icmp eq ptr %25, null
  br i1 %.not.i, label %28, label %26

26:                                               ; preds = %24
  %27 = tail call i32 @rename_tempfile(ptr noundef nonnull %1, ptr noundef nonnull %25) #30
  br label %commit_locked_index.exit

28:                                               ; preds = %24
  %29 = tail call i32 @commit_lock_file(ptr noundef nonnull %1) #30
  br label %commit_locked_index.exit

30:                                               ; preds = %22
  %.val30 = load ptr, ptr %1, align 8, !tbaa !173
  %31 = tail call i32 @close_tempfile_gently(ptr noundef %.val30) #30
  br label %commit_locked_index.exit

commit_locked_index.exit:                         ; preds = %28, %26, %30
  %.022 = phi i32 [ %31, %30 ], [ %27, %26 ], [ %29, %28 ]
  %32 = load ptr, ptr @the_repository, align 8, !tbaa !52
  %33 = getelementptr inbounds nuw i8, ptr %0, i64 56
  %34 = load i8, ptr %33, align 8
  %35 = and i8 %34, 8
  %.not27 = icmp eq i8 %35, 0
  %36 = select i1 %.not27, ptr @.str.79, ptr @.str.78
  %37 = and i8 %34, 16
  %.not28 = icmp eq i8 %37, 0
  %38 = select i1 %.not28, ptr @.str.79, ptr @.str.78
  %39 = tail call i32 (ptr, ptr, ...) @run_hooks_l(ptr noundef %32, ptr noundef nonnull @.str.77, ptr noundef nonnull %36, ptr noundef nonnull %38, ptr noundef null) #30
  %40 = load i8, ptr %33, align 8
  %41 = and i8 %40, -25
  store i8 %41, ptr %33, align 8
  br label %42

42:                                               ; preds = %21, %commit_locked_index.exit, %_.exit
  %.0 = phi i32 [ %7, %_.exit ], [ %.022, %commit_locked_index.exit ], [ -1, %21 ]
  ret i32 %.0
}